
main:     file format elf32-littleriscv
main
architecture: riscv:rv32, flags 0x00000112:
EXEC_P, HAS_SYMS, D_PAGED
start address 0x00000000

Program Header:
    LOAD off    0x00001000 vaddr 0x00000000 paddr 0x00000000 align 2**12
         filesz 0x0000022c memsz 0x0000022c flags r-x
    LOAD off    0x00002000 vaddr 0x00008000 paddr 0x00008000 align 2**12
         filesz 0x00000100 memsz 0x00001100 flags rw-

Sections:
Idx Name          Size      VMA       LMA       File off  Algn
  0 .text         00000224  00000000  00000000  00001000  2**2
                  CONTENTS, ALLOC, LOAD, READONLY, CODE
  1 .rodata       00000008  00000224  00000224  00001224  2**2
                  CONTENTS, ALLOC, LOAD, READONLY, DATA
  2 _test         00000100  00008000  00008000  00002000  2**0
                  ALLOC
  3 .data         00000000  00008100  00008100  00002100  2**0
                  CONTENTS, ALLOC, LOAD, DATA
  4 .bss          00000000  00008100  00008100  00002100  2**0
                  ALLOC
  5 .stack        00001000  00008100  00008100  00002100  2**0
                  ALLOC
  6 .comment      00000012  00000000  00000000  00002100  2**0
                  CONTENTS, READONLY
  7 .riscv.attributes 00000050  00000000  00000000  00002112  2**0
                  CONTENTS, READONLY
  8 .debug_line   0000020c  00000000  00000000  00002162  2**0
                  CONTENTS, READONLY, DEBUGGING
  9 .debug_info   000001e6  00000000  00000000  0000236e  2**0
                  CONTENTS, READONLY, DEBUGGING
 10 .debug_abbrev 00000028  00000000  00000000  00002554  2**0
                  CONTENTS, READONLY, DEBUGGING
 11 .debug_aranges 00000040  00000000  00000000  00002580  2**3
                  CONTENTS, READONLY, DEBUGGING
SYMBOL TABLE:
00000000 l    d  .text	00000000 .text
00000224 l    d  .rodata	00000000 .rodata
00008000 l    d  _test	00000000 _test
00008100 l    d  .data	00000000 .data
00008100 l    d  .bss	00000000 .bss
00008100 l    d  .stack	00000000 .stack
00000000 l    d  .comment	00000000 .comment
00000000 l    d  .riscv.attributes	00000000 .riscv.attributes
00000000 l    d  .debug_line	00000000 .debug_line
00000000 l    d  .debug_info	00000000 .debug_info
00000000 l    d  .debug_abbrev	00000000 .debug_abbrev
00000000 l    d  .debug_aranges	00000000 .debug_aranges
00000000 l    df *ABS*	00000000 setup.o
00000084 l       .text	00000000 init_bss
00000104 l       .text	00000000 fill_block
0000009c l       .text	00000000 init_sbss
000000b4 l       .text	00000000 write_stack_pattern
000000cc l       .text	00000000 init_stack
000000d4 l       .text	00000000 write_test_pattern
000000ec l       .text	00000000 SystemInit
000000f0 l       .text	00000000 SystemExit
00000100 l       .text	00000000 dead_loop
00000114 l       .text	00000000 fb_end
00000000 l    df *ABS*	00000000 main.c
00008000 g       _test	00000000 _test_start
00008100 g       _test	00000000 __sbss_start
00008900 g       _test	00000000 _gp
00008100 g       _test	00000000 _test_end
00000100 g       *ABS*	00000000 _TEST_SIZE
0000022c g       .rodata	00000000 __rodata_end
00008100 g       .bss	00000000 __bss_end
00000228 g       .rodata	00000000 mul2
00008100 g       _test	00000000 __sbss_end
00000000 g       .text	00000000 _start
00000224 g       .rodata	00000000 __rodata_start
00008100 g       .data	00000000 __data_end
00000200 g       .text	00000000 .hidden __mulsi3
00000224 g       .rodata	00000000 mul1
00008100 g       .bss	00000000 __bss_start
00001000 g       *ABS*	00000000 _STACK_SIZE
0000fffc g       .stack	00000000 _sim_end
00000118 g     F .text	00000060 main
00008100 g       .stack	00000000 _stack_end
00009100 g       .stack	00000000 __stack
00010000 g       .stack	00000000 _end
00000178 g       .text	00000000 .hidden __muldi3
00009100 g       .stack	00000000 _stack
00008100 g       .data	00000000 __data_start


Contents of section .text:
 0000 93000000 13010000 93010000 13020000  ................
 0010 93020000 13030000 93030000 13040000  ................
 0020 93040000 13050000 93050000 13060000  ................
 0030 93060000 13070000 93070000 13080000  ................
 0040 93080000 13090000 93090000 130a0000  ................
 0050 930a0000 130b0000 930b0000 130c0000  ................
 0060 930c0000 130d0000 930d0000 130e0000  ................
 0070 930e0000 130f0000 930f0000 97910000  ................
 0080 93814188 17850000 1305c507 97850000  ..A.............
 0090 93850507 13060000 ef00c006 17850000  ................
 00a0 13054506 97850000 93858505 13060000  ..E.............
 00b0 ef004005 17850000 1305c504 97950000  ..@.............
 00c0 93850504 13060000 ef00c003 17910000  ................
 00d0 13014103 17850000 1305c5f2 97850000  ..A.............
 00e0 93850502 13060000 ef00c001 ef00c002  ................
 00f0 97020100 9382c2f0 1303f0ff 23a06200  ............#.b.
 0100 6f000000 6378b500 2320c500 13054500  o...cx..# ....E.
 0110 6ff05fff 67800000 130101ff 23261100  o._.g.......#&..
 0120 23248100 13040101 83274022 13850700  #$.......'@"....
 0130 93d7f741 93850700 83278022 13860700  ...A.....'."....
 0140 93d7f741 93860700 ef000003 13070500  ...A............
 0150 93870500 b7860000 23a0e600 23a2f600  ........#...#...
 0160 93070000 13850700 8320c100 03248100  ......... ...$..
 0170 13010101 67800000 93820000 130f0500  ....g...........
 0180 13850500 938f0600 93050f00 13070600  ................
 0190 93070000 93030000 930e0000 3388b300  ............3...
 01a0 137e1700 93981700 13a30500 13571700  .~...........W..
 01b0 b387fe00 63080e00 333e7800 93030800  ....c...3>x.....
 01c0 b30efe00 93951500 b3671301 e31807fc  .........g......
 01d0 63080500 93050600 ef008002 b38eae00  c...............
 01e0 638a0f00 93850f00 13050f00 ef004001  c.............@.
 01f0 b38eae00 13850300 93850e00 67800200  ............g...
 0200 13060500 13050000 93f61500 63840600  ............c...
 0210 3305c500 93d51500 13161600 e39605fe  3...............
 0220 67800000                             g...            
Contents of section .rodata:
 0224 4d3c2b1a 32547698                    M<+.2Tv.        
Contents of section .comment:
 0000 4743433a 2028474e 55292031 312e312e  GCC: (GNU) 11.1.
 0010 3000                                 0.              
Contents of section .riscv.attributes:
 0000 411b0000 00726973 63760001 11000000  A....riscv......
 0010 04100572 76333269 32703000 41190000  ...rv32i2p0.A...
 0020 00726973 63760001 0f000000 05727633  .riscv.......rv3
 0030 32693270 30004119 00000072 69736376  2i2p0.A....riscv
 0040 00010f00 00000572 76333269 32703000  .......rv32i2p0.
Contents of section .debug_line:
 0000 4d010000 02007100 00000101 fb0e0d00  M.....q.........
 0010 01010101 00000001 0000012f 6f70742f  .........../opt/
 0020 52495343 562f7269 7363762d 746f6f6c  RISCV/riscv-tool
 0030 732f7269 7363762d 676e752d 746f6f6c  s/riscv-gnu-tool
 0040 63686169 6e2f6275 696c642f 2e2e2f72  chain/build/../r
 0050 69736376 2d676363 2f6c6962 6763632f  iscv-gcc/libgcc/
 0060 636f6e66 69672f72 69736376 00006d75  config/riscv..mu
 0070 6c746933 2e530001 00000000 05027801  lti3.S........x.
 0080 0000032b 01030109 04000103 01090400  ...+............
 0090 01030109 04000103 01090400 01030109  ................
 00a0 04000103 01090400 01030109 04000103  ................
 00b0 01090400 01030209 04000103 01090400  ................
 00c0 01030109 04000103 01090400 01030109  ................
 00d0 04000103 01090400 01030109 04000103  ................
 00e0 01090400 01030109 04000103 01090400  ................
 00f0 01030209 04000103 01090400 01030109  ................
 0100 04000103 01090400 01030109 04000103  ................
 0110 01090400 01030109 04000103 02090400  ................
 0120 01030109 04000103 01090400 01030109  ................
 0130 04000103 01090400 01030209 04000103  ................
 0140 01090400 01030109 04000109 04000001  ................
 0150 01b70000 00020071 00000001 01fb0e0d  .......q........
 0160 00010101 01000000 01000001 2f6f7074  ............/opt
 0170 2f524953 43562f72 69736376 2d746f6f  /RISCV/riscv-too
 0180 6c732f72 69736376 2d676e75 2d746f6f  ls/riscv-gnu-too
 0190 6c636861 696e2f62 75696c64 2f2e2e2f  lchain/build/../
 01a0 72697363 762d6763 632f6c69 62676363  riscv-gcc/libgcc
 01b0 2f636f6e 6669672f 72697363 7600006d  /config/riscv..m
 01c0 756c6469 332e5300 01000000 00050200  uldi3.S.........
 01d0 02000003 23010301 09040001 03020904  ....#...........
 01e0 00010301 09040001 03010904 00010302  ................
 01f0 09040001 03010904 00010301 09040001  ................
 0200 03010904 00010904 00000101           ............    
Contents of section .debug_info:
 0000 ef000000 02000000 00000401 00000000  ................
 0010 78010000 00020000 2f6f7074 2f524953  x......./opt/RIS
 0020 43562f72 69736376 2d746f6f 6c732f72  CV/riscv-tools/r
 0030 69736376 2d676e75 2d746f6f 6c636861  iscv-gnu-toolcha
 0040 696e2f62 75696c64 2f2e2e2f 72697363  in/build/../risc
 0050 762d6763 632f6c69 62676363 2f636f6e  v-gcc/libgcc/con
 0060 6669672f 72697363 762f6d75 6c746933  fig/riscv/multi3
 0070 2e53002f 6f70742f 52495343 562f7269  .S./opt/RISCV/ri
 0080 7363762d 746f6f6c 732f7269 7363762d  scv-tools/riscv-
 0090 676e752d 746f6f6c 63686169 6e2f6275  gnu-toolchain/bu
 00a0 696c642f 6275696c 642d6763 632d6e65  ild/build-gcc-ne
 00b0 776c6962 2d737461 6765322f 72697363  wlib-stage2/risc
 00c0 7636342d 756e6b6e 6f776e2d 656c662f  v64-unknown-elf/
 00d0 72763332 692f696c 7033322f 6c696267  rv32i/ilp32/libg
 00e0 63630047 4e552041 5320322e 32382e30  cc.GNU AS 2.28.0
 00f0 000180ef 00000002 00140000 00040151  ...............Q
 0100 01000000 02000024 0200002f 6f70742f  .......$.../opt/
 0110 52495343 562f7269 7363762d 746f6f6c  RISCV/riscv-tool
 0120 732f7269 7363762d 676e752d 746f6f6c  s/riscv-gnu-tool
 0130 63686169 6e2f6275 696c642f 2e2e2f72  chain/build/../r
 0140 69736376 2d676363 2f6c6962 6763632f  iscv-gcc/libgcc/
 0150 636f6e66 69672f72 69736376 2f6d756c  config/riscv/mul
 0160 6469332e 53002f6f 70742f52 49534356  di3.S./opt/RISCV
 0170 2f726973 63762d74 6f6f6c73 2f726973  /riscv-tools/ris
 0180 63762d67 6e752d74 6f6f6c63 6861696e  cv-gnu-toolchain
 0190 2f627569 6c642f62 75696c64 2d676363  /build/build-gcc
 01a0 2d6e6577 6c69622d 73746167 65322f72  -newlib-stage2/r
 01b0 69736376 36342d75 6e6b6e6f 776e2d65  iscv64-unknown-e
 01c0 6c662f72 76333269 2f696c70 33322f6c  lf/rv32i/ilp32/l
 01d0 69626763 6300474e 55204153 20322e32  ibgcc.GNU AS 2.2
 01e0 382e3000 0180                        8.0...          
Contents of section .debug_abbrev:
 0000 01110010 06110112 0103081b 08250813  .............%..
 0010 05000000 01110010 06110112 0103081b  ................
 0020 08250813 05000000                    .%......        
Contents of section .debug_aranges:
 0000 1c000000 02000000 00000400 00000000  ................
 0010 78010000 88000000 00000000 00000000  x...............
 0020 1c000000 0200f300 00000400 00000000  ................
 0030 00020000 24000000 00000000 00000000  ....$...........

Disassembly of section .text:

00000000 <_start>:
   0:	00000093          	li	ra,0
   4:	00000113          	li	sp,0
   8:	00000193          	li	gp,0
   c:	00000213          	li	tp,0
  10:	00000293          	li	t0,0
  14:	00000313          	li	t1,0
  18:	00000393          	li	t2,0
  1c:	00000413          	li	s0,0
  20:	00000493          	li	s1,0
  24:	00000513          	li	a0,0
  28:	00000593          	li	a1,0
  2c:	00000613          	li	a2,0
  30:	00000693          	li	a3,0
  34:	00000713          	li	a4,0
  38:	00000793          	li	a5,0
  3c:	00000813          	li	a6,0
  40:	00000893          	li	a7,0
  44:	00000913          	li	s2,0
  48:	00000993          	li	s3,0
  4c:	00000a13          	li	s4,0
  50:	00000a93          	li	s5,0
  54:	00000b13          	li	s6,0
  58:	00000b93          	li	s7,0
  5c:	00000c13          	li	s8,0
  60:	00000c93          	li	s9,0
  64:	00000d13          	li	s10,0
  68:	00000d93          	li	s11,0
  6c:	00000e13          	li	t3,0
  70:	00000e93          	li	t4,0
  74:	00000f13          	li	t5,0
  78:	00000f93          	li	t6,0
  7c:	00009197          	auipc	gp,0x9
  80:	88418193          	addi	gp,gp,-1916 # 8900 <_gp>

00000084 <init_bss>:
  84:	00008517          	auipc	a0,0x8
  88:	07c50513          	addi	a0,a0,124 # 8100 <__sbss_end>
  8c:	00008597          	auipc	a1,0x8
  90:	07058593          	addi	a1,a1,112 # 80fc <_test_start+0xfc>
  94:	00000613          	li	a2,0
  98:	06c000ef          	jal	ra,104 <fill_block>

0000009c <init_sbss>:
  9c:	00008517          	auipc	a0,0x8
  a0:	06450513          	addi	a0,a0,100 # 8100 <__sbss_end>
  a4:	00008597          	auipc	a1,0x8
  a8:	05858593          	addi	a1,a1,88 # 80fc <_test_start+0xfc>
  ac:	00000613          	li	a2,0
  b0:	054000ef          	jal	ra,104 <fill_block>

000000b4 <write_stack_pattern>:
  b4:	00008517          	auipc	a0,0x8
  b8:	04c50513          	addi	a0,a0,76 # 8100 <__sbss_end>
  bc:	00009597          	auipc	a1,0x9
  c0:	04058593          	addi	a1,a1,64 # 90fc <_gp+0x7fc>
  c4:	00000613          	li	a2,0
  c8:	03c000ef          	jal	ra,104 <fill_block>

000000cc <init_stack>:
  cc:	00009117          	auipc	sp,0x9
  d0:	03410113          	addi	sp,sp,52 # 9100 <__stack>

000000d4 <write_test_pattern>:
  d4:	00008517          	auipc	a0,0x8
  d8:	f2c50513          	addi	a0,a0,-212 # 8000 <_test_start>
  dc:	00008597          	auipc	a1,0x8
  e0:	02058593          	addi	a1,a1,32 # 80fc <_test_start+0xfc>
  e4:	00000613          	li	a2,0
  e8:	01c000ef          	jal	ra,104 <fill_block>

000000ec <SystemInit>:
  ec:	02c000ef          	jal	ra,118 <main>

000000f0 <SystemExit>:
  f0:	00010297          	auipc	t0,0x10
  f4:	f0c28293          	addi	t0,t0,-244 # fffc <_sim_end>
  f8:	fff00313          	li	t1,-1
  fc:	0062a023          	sw	t1,0(t0)

00000100 <dead_loop>:
 100:	0000006f          	j	100 <dead_loop>

00000104 <fill_block>:
 104:	00b57863          	bleu	a1,a0,114 <fb_end>
 108:	00c52023          	sw	a2,0(a0)
 10c:	00450513          	addi	a0,a0,4
 110:	ff5ff06f          	j	104 <fill_block>

00000114 <fb_end>:
 114:	00008067          	ret

00000118 <main>:
 118:	ff010113          	addi	sp,sp,-16
 11c:	00112623          	sw	ra,12(sp)
 120:	00812423          	sw	s0,8(sp)
 124:	01010413          	addi	s0,sp,16
 128:	22402783          	lw	a5,548(zero) # 224 <__rodata_start>
 12c:	00078513          	mv	a0,a5
 130:	41f7d793          	srai	a5,a5,0x1f
 134:	00078593          	mv	a1,a5
 138:	22802783          	lw	a5,552(zero) # 228 <mul2>
 13c:	00078613          	mv	a2,a5
 140:	41f7d793          	srai	a5,a5,0x1f
 144:	00078693          	mv	a3,a5
 148:	030000ef          	jal	ra,178 <__muldi3>
 14c:	00050713          	mv	a4,a0
 150:	00058793          	mv	a5,a1
 154:	000086b7          	lui	a3,0x8
 158:	00e6a023          	sw	a4,0(a3) # 8000 <_test_start>
 15c:	00f6a223          	sw	a5,4(a3)
 160:	00000793          	li	a5,0
 164:	00078513          	mv	a0,a5
 168:	00c12083          	lw	ra,12(sp)
 16c:	00812403          	lw	s0,8(sp)
 170:	01010113          	addi	sp,sp,16
 174:	00008067          	ret

00000178 <__muldi3>:
 178:	00008293          	mv	t0,ra
 17c:	00050f13          	mv	t5,a0
 180:	00058513          	mv	a0,a1
 184:	00068f93          	mv	t6,a3
 188:	000f0593          	mv	a1,t5
 18c:	00060713          	mv	a4,a2
 190:	00000793          	li	a5,0
 194:	00000393          	li	t2,0
 198:	00000e93          	li	t4,0
 19c:	00b38833          	add	a6,t2,a1
 1a0:	00177e13          	andi	t3,a4,1
 1a4:	00179893          	slli	a7,a5,0x1
 1a8:	0005a313          	slti	t1,a1,0
 1ac:	00175713          	srli	a4,a4,0x1
 1b0:	00fe87b3          	add	a5,t4,a5
 1b4:	000e0863          	beqz	t3,1c4 <__muldi3+0x4c>
 1b8:	00783e33          	sltu	t3,a6,t2
 1bc:	00080393          	mv	t2,a6
 1c0:	00fe0eb3          	add	t4,t3,a5
 1c4:	00159593          	slli	a1,a1,0x1
 1c8:	011367b3          	or	a5,t1,a7
 1cc:	fc0718e3          	bnez	a4,19c <__muldi3+0x24>
 1d0:	00050863          	beqz	a0,1e0 <__muldi3+0x68>
 1d4:	00060593          	mv	a1,a2
 1d8:	028000ef          	jal	ra,200 <__mulsi3>
 1dc:	00ae8eb3          	add	t4,t4,a0
 1e0:	000f8a63          	beqz	t6,1f4 <__muldi3+0x7c>
 1e4:	000f8593          	mv	a1,t6
 1e8:	000f0513          	mv	a0,t5
 1ec:	014000ef          	jal	ra,200 <__mulsi3>
 1f0:	00ae8eb3          	add	t4,t4,a0
 1f4:	00038513          	mv	a0,t2
 1f8:	000e8593          	mv	a1,t4
 1fc:	00028067          	jr	t0

00000200 <__mulsi3>:
 200:	00050613          	mv	a2,a0
 204:	00000513          	li	a0,0
 208:	0015f693          	andi	a3,a1,1
 20c:	00068463          	beqz	a3,214 <__mulsi3+0x14>
 210:	00c50533          	add	a0,a0,a2
 214:	0015d593          	srli	a1,a1,0x1
 218:	00161613          	slli	a2,a2,0x1
 21c:	fe0596e3          	bnez	a1,208 <__mulsi3+0x8>
 220:	00008067          	ret
